; Function Attrs: mustprogress nofree norecurse nosync nounwind memory(argmem: readwrite) uwtable
define internal void @_ZN2cvL7iPow16uEPKtPtii(ptr noundef readonly captures(none) %0, ptr noundef writeonly captures(none) %1, i32 noundef %2, i32 noundef %3) #18 {
  %5 = alloca [5 x i16], align 2
  %6 = icmp slt i32 %3, 0
  br i1 %6, label %21, label %.preheader.i

.preheader.i:                                     ; preds = %4
  %7 = icmp sgt i32 %2, 0
  br i1 %7, label %.lr.ph46.i, label %_ZN2cvL6iPow_iItjEEvPKT_PS1_ii.exit

.lr.ph46.i:                                       ; preds = %.preheader.i
  %8 = icmp samesign ugt i32 %3, 1
  %wide.trip.count53.i = zext nneg i32 %2 to i64
  br i1 %8, label %.lr.ph.us.i, label %.lr.ph46.split.i

.lr.ph.us.i:                                      ; preds = %.lr.ph46.i, %._crit_edge.us.i
  %indvars.iv50.i = phi i64 [ %indvars.iv.next51.i, %._crit_edge.us.i ], [ 0, %.lr.ph46.i ]
  %9 = getelementptr inbounds nuw i16, ptr %0, i64 %indvars.iv50.i
  %10 = load i16, ptr %9, align 2, !tbaa !151
  %11 = zext i16 %10 to i32
  br label %12

12:                                               ; preds = %12, %.lr.ph.us.i
  %.043.us.i = phi i32 [ %3, %.lr.ph.us.i ], [ %16, %12 ]
  %.03442.us.i = phi i32 [ %11, %.lr.ph.us.i ], [ %15, %12 ]
  %.03541.us.i = phi i32 [ 1, %.lr.ph.us.i ], [ %spec.select.us.i, %12 ]
  %13 = and i32 %.043.us.i, 1
  %.not.us.i = icmp eq i32 %13, 0
  %14 = select i1 %.not.us.i, i32 1, i32 %.03442.us.i
  %spec.select.us.i = mul i32 %14, %.03541.us.i
  %15 = mul i32 %.03442.us.i, %.03442.us.i
  %16 = lshr i32 %.043.us.i, 1
  %17 = icmp ugt i32 %.043.us.i, 3
  br i1 %17, label %12, label %._crit_edge.us.i, !llvm.loop !236

._crit_edge.us.i:                                 ; preds = %12
  %18 = mul i32 %spec.select.us.i, %15
  %.sroa.speculated.i.us.i = tail call i32 @llvm.umin.i32(i32 %18, i32 65535)
  %19 = trunc nuw i32 %.sroa.speculated.i.us.i to i16
  %20 = getelementptr inbounds nuw i16, ptr %1, i64 %indvars.iv50.i
  store i16 %19, ptr %20, align 2, !tbaa !151
  %indvars.iv.next51.i = add nuw nsw i64 %indvars.iv50.i, 1
  %exitcond54.not.i = icmp eq i64 %indvars.iv.next51.i, %wide.trip.count53.i
  br i1 %exitcond54.not.i, label %_ZN2cvL6iPow_iItjEEvPKT_PS1_ii.exit, label %.lr.ph.us.i, !llvm.loop !237

21:                                               ; preds = %4
  call void @llvm.lifetime.start.p0(i64 10, ptr nonnull %5) #27
  %22 = icmp eq i32 %3, -1
  %23 = getelementptr inbounds nuw i8, ptr %5, i64 4
  store i16 -1, ptr %23, align 2, !tbaa !151
  %24 = getelementptr inbounds nuw i8, ptr %5, i64 6
  store i16 1, ptr %24, align 2, !tbaa !151
  %25 = getelementptr inbounds nuw i8, ptr %5, i64 8
  %26 = zext i1 %22 to i16
  store i16 %26, ptr %25, align 2, !tbaa !151
  %27 = icmp sgt i32 %2, 0
  br i1 %27, label %.lr.ph.preheader.i, label %._crit_edge.i

.lr.ph.preheader.i:                               ; preds = %21
  %wide.trip.count58.i = zext nneg i32 %2 to i64
  br label %.lr.ph.i

._crit_edge.i:                                    ; preds = %35, %21
  call void @llvm.lifetime.end.p0(i64 10, ptr nonnull %5) #27
  br label %_ZN2cvL6iPow_iItjEEvPKT_PS1_ii.exit

.lr.ph.i:                                         ; preds = %35, %.lr.ph.preheader.i
  %indvars.iv55.i = phi i64 [ 0, %.lr.ph.preheader.i ], [ %indvars.iv.next56.i, %35 ]
  %28 = getelementptr inbounds nuw i16, ptr %0, i64 %indvars.iv55.i
  %29 = load i16, ptr %28, align 2, !tbaa !151
  %30 = icmp ult i16 %29, 3
  br i1 %30, label %31, label %35

31:                                               ; preds = %.lr.ph.i
  %narrow.i = add nuw nsw i16 %29, 2
  %32 = zext nneg i16 %narrow.i to i64
  %33 = getelementptr inbounds nuw [5 x i16], ptr %5, i64 0, i64 %32
  %34 = load i16, ptr %33, align 2, !tbaa !151
  br label %35

35:                                               ; preds = %31, %.lr.ph.i
  %36 = phi i16 [ %34, %31 ], [ 0, %.lr.ph.i ]
  %37 = getelementptr inbounds nuw i16, ptr %1, i64 %indvars.iv55.i
  store i16 %36, ptr %37, align 2, !tbaa !151
  %indvars.iv.next56.i = add nuw nsw i64 %indvars.iv55.i, 1
  %exitcond59.not.i = icmp eq i64 %indvars.iv.next56.i, %wide.trip.count58.i
  br i1 %exitcond59.not.i, label %._crit_edge.i, label %.lr.ph.i, !llvm.loop !238

.lr.ph46.split.i:                                 ; preds = %.lr.ph46.i, %.lr.ph46.split.i
  %indvars.iv.i = phi i64 [ %indvars.iv.next.i, %.lr.ph46.split.i ], [ 0, %.lr.ph46.i ]
  %38 = getelementptr inbounds nuw i16, ptr %0, i64 %indvars.iv.i
  %39 = load i16, ptr %38, align 2, !tbaa !151
  %40 = getelementptr inbounds nuw i16, ptr %1, i64 %indvars.iv.i
  store i16 %39, ptr %40, align 2, !tbaa !151
  %indvars.iv.next.i = add nuw nsw i64 %indvars.iv.i, 1
  %exitcond.not.i = icmp eq i64 %indvars.iv.next.i, %wide.trip.count53.i
  br i1 %exitcond.not.i, label %_ZN2cvL6iPow_iItjEEvPKT_PS1_ii.exit, label %.lr.ph46.split.i, !llvm.loop !237

_ZN2cvL6iPow_iItjEEvPKT_PS1_ii.exit:              ; preds = %.lr.ph46.split.i, %._crit_edge.us.i, %.preheader.i, %._crit_edge.i
  ret void
}